target datalayout = "e-m:e-p270:32:32-p271:32:32-p272:64:64-i64:64-i128:128-f80:128-n8:16:32:64-S128"
target triple = "x86_64-pc-linux-gnu"

%"class.cv::APNGFrame" = type { ptr, i32, i32, i8, [256 x %"struct.cv::rgb"], [256 x i8], i32, i32, i32, i32, %"class.std::vector" }
%"struct.cv::rgb" = type { i8, i8, i8 }
%"class.std::vector" = type { %"struct.std::_Vector_base" }
%"struct.std::_Vector_base" = type { %"struct.std::_Vector_base<unsigned char *, std::allocator<unsigned char *>>::_Vector_impl" }
%"struct.std::_Vector_base<unsigned char *, std::allocator<unsigned char *>>::_Vector_impl" = type { %"struct.std::_Vector_base<unsigned char *, std::allocator<unsigned char *>>::_Vector_impl_data" }
%"struct.std::_Vector_base<unsigned char *, std::allocator<unsigned char *>>::_Vector_impl_data" = type { ptr, ptr, ptr }
%"class.cv::Mat" = type { i32, i32, i32, i32, ptr, ptr, ptr, ptr, ptr, ptr, %"struct.cv::MatSize", %"struct.cv::MatStep" }
%"struct.cv::MatSize" = type { ptr }
%"struct.cv::MatStep" = type { ptr, [2 x i64] }

; Function Attrs: mustprogress nounwind uwtable
define linkonce_odr hidden void @_ZNSt12_Destroy_auxILb1EE9__destroyIPPhEEvT_S4_(ptr noundef %0, ptr noundef %1) #4 comdat align 2 {
  %3 = alloca ptr, align 8
  %4 = alloca ptr, align 8
  store ptr %0, ptr %3, align 8, !tbaa !163
  store ptr %1, ptr %4, align 8, !tbaa !163
  ret void
}

; Function Attrs: inlinehint mustprogress uwtable
define linkonce_odr void @_ZSt8_DestroyIPPhEvT_S2_(ptr noundef %0, ptr noundef %1) #8 comdat {
  %3 = alloca ptr, align 8
  %4 = alloca ptr, align 8
  store ptr %0, ptr %3, align 8, !tbaa !163
  store ptr %1, ptr %4, align 8, !tbaa !163
  %5 = load ptr, ptr %3, align 8, !tbaa !163
  %6 = load ptr, ptr %4, align 8, !tbaa !163
  call void @_ZNSt12_Destroy_auxILb1EE9__destroyIPPhEEvT_S4_(ptr noundef %5, ptr noundef %6)
  ret void
}

; Function Attrs: noinline noreturn nounwind uwtable
define linkonce_odr hidden void @__clang_call_terminate(ptr noundef %0) #9 comdat {
  %2 = call ptr @__cxa_begin_catch(ptr %0) #3
  call void @_ZSt9terminatev() #26
  unreachable
}

; Function Attrs: inlinehint mustprogress uwtable
define linkonce_odr void @_ZSt8_DestroyIPPhS0_EvT_S2_RSaIT0_E(ptr noundef %0, ptr noundef %1, ptr noundef nonnull align 1 dereferenceable(1) %2) #8 comdat {
  %4 = alloca ptr, align 8
  %5 = alloca ptr, align 8
  %6 = alloca ptr, align 8
  store ptr %0, ptr %4, align 8, !tbaa !163
  store ptr %1, ptr %5, align 8, !tbaa !163
  store ptr %2, ptr %6, align 8, !tbaa !328
  %7 = load ptr, ptr %4, align 8, !tbaa !163
  %8 = load ptr, ptr %5, align 8, !tbaa !163
  call void @_ZSt8_DestroyIPPhEvT_S2_(ptr noundef %7, ptr noundef %8)
  ret void
}

; Function Attrs: mustprogress nounwind uwtable
define linkonce_odr hidden noundef nonnull align 1 dereferenceable(1) ptr @_ZNSt12_Vector_baseIPhSaIS0_EE19_M_get_Tp_allocatorEv(ptr noundef nonnull align 8 dereferenceable(24) %0) #4 comdat align 2 {
  %2 = alloca ptr, align 8
  store ptr %0, ptr %2, align 8, !tbaa !324
  %3 = load ptr, ptr %2, align 8
  %4 = getelementptr inbounds nuw %"struct.std::_Vector_base", ptr %3, i32 0, i32 0
  ret ptr %4
}

; Function Attrs: mustprogress nounwind uwtable
define linkonce_odr hidden void @_ZNSt6vectorIPhSaIS0_EE15_M_erase_at_endEPS0_(ptr noundef nonnull align 8 dereferenceable(24) %0, ptr noundef %1) #4 comdat align 2 personality ptr @__gxx_personality_v0 {
  %3 = alloca ptr, align 8
  %4 = alloca ptr, align 8
  %5 = alloca i64, align 8
  store ptr %0, ptr %3, align 8, !tbaa !25
  store ptr %1, ptr %4, align 8, !tbaa !163
  %6 = load ptr, ptr %3, align 8
  call void @llvm.lifetime.start.p0(i64 8, ptr %5) #3
  %7 = getelementptr inbounds nuw %"struct.std::_Vector_base", ptr %6, i32 0, i32 0
  %8 = getelementptr inbounds nuw %"struct.std::_Vector_base<unsigned char *, std::allocator<unsigned char *>>::_Vector_impl_data", ptr %7, i32 0, i32 1
  %9 = load ptr, ptr %8, align 8, !tbaa !28
  %10 = load ptr, ptr %4, align 8, !tbaa !163
  %11 = ptrtoint ptr %9 to i64
  %12 = ptrtoint ptr %10 to i64
  %13 = sub i64 %11, %12
  %14 = sdiv exact i64 %13, 8
  store i64 %14, ptr %5, align 8, !tbaa !46
  %15 = load i64, ptr %5, align 8, !tbaa !46
  %16 = icmp ne i64 %15, 0
  br i1 %16, label %17, label %27

17:                                               ; preds = %2
  %18 = load ptr, ptr %4, align 8, !tbaa !163
  %19 = getelementptr inbounds nuw %"struct.std::_Vector_base", ptr %6, i32 0, i32 0
  %20 = getelementptr inbounds nuw %"struct.std::_Vector_base<unsigned char *, std::allocator<unsigned char *>>::_Vector_impl_data", ptr %19, i32 0, i32 1
  %21 = load ptr, ptr %20, align 8, !tbaa !28
  %22 = call noundef nonnull align 1 dereferenceable(1) ptr @_ZNSt12_Vector_baseIPhSaIS0_EE19_M_get_Tp_allocatorEv(ptr noundef nonnull align 8 dereferenceable(24) %6) #3
  invoke void @_ZSt8_DestroyIPPhS0_EvT_S2_RSaIT0_E(ptr noundef %18, ptr noundef %21, ptr noundef nonnull align 1 dereferenceable(1) %22)
          to label %23 unwind label %28

23:                                               ; preds = %17
  %24 = load ptr, ptr %4, align 8, !tbaa !163
  %25 = getelementptr inbounds nuw %"struct.std::_Vector_base", ptr %6, i32 0, i32 0
  %26 = getelementptr inbounds nuw %"struct.std::_Vector_base<unsigned char *, std::allocator<unsigned char *>>::_Vector_impl_data", ptr %25, i32 0, i32 1
  store ptr %24, ptr %26, align 8, !tbaa !28
  br label %27

27:                                               ; preds = %23, %2
  call void @llvm.lifetime.end.p0(i64 8, ptr %5) #3
  ret void

28:                                               ; preds = %17
  %29 = landingpad { ptr, i32 }
          catch ptr null
  %30 = extractvalue { ptr, i32 } %29, 0
  call void @__clang_call_terminate(ptr %30) #26
  unreachable
}

; Function Attrs: mustprogress nounwind uwtable
define linkonce_odr hidden noundef i64 @_ZNKSt6vectorIPhSaIS0_EE4sizeEv(ptr noundef nonnull align 8 dereferenceable(24) %0) #4 comdat align 2 {
  %2 = alloca ptr, align 8
  store ptr %0, ptr %2, align 8, !tbaa !25
  %3 = load ptr, ptr %2, align 8
  %4 = getelementptr inbounds nuw %"struct.std::_Vector_base", ptr %3, i32 0, i32 0
  %5 = getelementptr inbounds nuw %"struct.std::_Vector_base<unsigned char *, std::allocator<unsigned char *>>::_Vector_impl_data", ptr %4, i32 0, i32 1
  %6 = load ptr, ptr %5, align 8, !tbaa !28
  %7 = getelementptr inbounds nuw %"struct.std::_Vector_base", ptr %3, i32 0, i32 0
  %8 = getelementptr inbounds nuw %"struct.std::_Vector_base<unsigned char *, std::allocator<unsigned char *>>::_Vector_impl_data", ptr %7, i32 0, i32 0
  %9 = load ptr, ptr %8, align 8, !tbaa !27
  %10 = ptrtoint ptr %6 to i64
  %11 = ptrtoint ptr %9 to i64
  %12 = sub i64 %10, %11
  %13 = sdiv exact i64 %12, 8
  ret i64 %13
}

; Function Attrs: mustprogress nounwind uwtable
define linkonce_odr hidden noundef nonnull align 8 dereferenceable(8) ptr @_ZNSt6vectorIPhSaIS0_EEixEm(ptr noundef nonnull align 8 dereferenceable(24) %0, i64 noundef %1) #4 comdat align 2 {
  %3 = alloca ptr, align 8
  %4 = alloca i64, align 8
  store ptr %0, ptr %3, align 8, !tbaa !25
  store i64 %1, ptr %4, align 8, !tbaa !46
  %5 = load ptr, ptr %3, align 8
  %6 = getelementptr inbounds nuw %"struct.std::_Vector_base", ptr %5, i32 0, i32 0
  %7 = getelementptr inbounds nuw %"struct.std::_Vector_base<unsigned char *, std::allocator<unsigned char *>>::_Vector_impl_data", ptr %6, i32 0, i32 0
  %8 = load ptr, ptr %7, align 8, !tbaa !27
  %9 = load i64, ptr %4, align 8, !tbaa !46
  %10 = getelementptr inbounds nuw ptr, ptr %8, i64 %9
  ret ptr %10
}

; Function Attrs: mustprogress uwtable
define linkonce_odr hidden void @_ZNSt6vectorIPhSaIS0_EE6resizeEm(ptr noundef nonnull align 8 dereferenceable(24) %0, i64 noundef %1) #5 comdat align 2 {
  %3 = alloca ptr, align 8
  %4 = alloca i64, align 8
  store ptr %0, ptr %3, align 8, !tbaa !25
  store i64 %1, ptr %4, align 8, !tbaa !46
  %5 = load ptr, ptr %3, align 8
  %6 = load i64, ptr %4, align 8, !tbaa !46
  %7 = call noundef i64 @_ZNKSt6vectorIPhSaIS0_EE4sizeEv(ptr noundef nonnull align 8 dereferenceable(24) %5) #3
  %8 = icmp ugt i64 %6, %7
  br i1 %8, label %9, label %13

9:                                                ; preds = %2
  %10 = load i64, ptr %4, align 8, !tbaa !46
  %11 = call noundef i64 @_ZNKSt6vectorIPhSaIS0_EE4sizeEv(ptr noundef nonnull align 8 dereferenceable(24) %5) #3
  %12 = sub i64 %10, %11
  call void @_ZNSt6vectorIPhSaIS0_EE17_M_default_appendEm(ptr noundef nonnull align 8 dereferenceable(24) %5, i64 noundef %12)
  br label %24

13:                                               ; preds = %2
  %14 = load i64, ptr %4, align 8, !tbaa !46
  %15 = call noundef i64 @_ZNKSt6vectorIPhSaIS0_EE4sizeEv(ptr noundef nonnull align 8 dereferenceable(24) %5) #3
  %16 = icmp ult i64 %14, %15
  br i1 %16, label %17, label %23

17:                                               ; preds = %13
  %18 = getelementptr inbounds nuw %"struct.std::_Vector_base", ptr %5, i32 0, i32 0
  %19 = getelementptr inbounds nuw %"struct.std::_Vector_base<unsigned char *, std::allocator<unsigned char *>>::_Vector_impl_data", ptr %18, i32 0, i32 0
  %20 = load ptr, ptr %19, align 8, !tbaa !27
  %21 = load i64, ptr %4, align 8, !tbaa !46
  %22 = getelementptr inbounds nuw ptr, ptr %20, i64 %21
  call void @_ZNSt6vectorIPhSaIS0_EE15_M_erase_at_endEPS0_(ptr noundef nonnull align 8 dereferenceable(24) %5, ptr noundef %22) #3
  br label %23

23:                                               ; preds = %17, %13
  br label %24

24:                                               ; preds = %23, %9
  ret void
}

; Function Attrs: inlinehint mustprogress nounwind uwtable
define linkonce_odr hidden noundef i32 @_ZNK2cv3Mat8channelsEv(ptr noundef nonnull align 8 dereferenceable(96) %0) #7 comdat align 2 {
  %2 = alloca ptr, align 8
  store ptr %0, ptr %2, align 8, !tbaa !29
  %3 = load ptr, ptr %2, align 8
  %4 = getelementptr inbounds nuw %"class.cv::Mat", ptr %3, i32 0, i32 0
  %5 = load i32, ptr %4, align 8, !tbaa !45
  %6 = and i32 %5, 4088
  %7 = ashr i32 %6, 3
  %8 = add nsw i32 %7, 1
  ret i32 %8
}

; Function Attrs: inlinehint mustprogress nounwind uwtable
define linkonce_odr hidden noundef i32 @_ZNK2cv3Mat5depthEv(ptr noundef nonnull align 8 dereferenceable(96) %0) #7 comdat align 2 {
  %2 = alloca ptr, align 8
  store ptr %0, ptr %2, align 8, !tbaa !29
  %3 = load ptr, ptr %2, align 8
  %4 = getelementptr inbounds nuw %"class.cv::Mat", ptr %3, i32 0, i32 0
  %5 = load i32, ptr %4, align 8, !tbaa !45
  %6 = and i32 %5, 7
  ret i32 %6
}

; Function Attrs: mustprogress uwtable
define hidden noundef zeroext i1 @_ZN2cv9APNGFrame6setMatERKNS_3MatEjj(ptr noundef nonnull align 8 dereferenceable(1088) %0, ptr noundef nonnull align 8 dereferenceable(96) %1, i32 noundef %2, i32 noundef %3) #5 align 2 {
  %5 = alloca i1, align 1
  %6 = alloca ptr, align 8
  %7 = alloca ptr, align 8
  %8 = alloca i32, align 4
  %9 = alloca i32, align 4
  %10 = alloca i32, align 4
  %11 = alloca i32, align 4
  store ptr %0, ptr %6, align 8, !tbaa !3
  store ptr %1, ptr %7, align 8, !tbaa !29
  store i32 %2, ptr %8, align 4, !tbaa !31
  store i32 %3, ptr %9, align 4, !tbaa !31
  %12 = load ptr, ptr %6, align 8
  %13 = load i32, ptr %8, align 4, !tbaa !31
  %14 = getelementptr inbounds nuw %"class.cv::APNGFrame", ptr %12, i32 0, i32 8
  store i32 %13, ptr %14, align 4, !tbaa !23
  %15 = load i32, ptr %9, align 4, !tbaa !31
  %16 = getelementptr inbounds nuw %"class.cv::APNGFrame", ptr %12, i32 0, i32 9
  store i32 %15, ptr %16, align 8, !tbaa !24
  %17 = load ptr, ptr %7, align 8, !tbaa !29
  %18 = call noundef zeroext i1 @_ZNK2cv3Mat5emptyEv(ptr noundef nonnull align 8 dereferenceable(96) %17)
  br i1 %18, label %91, label %19

19:                                               ; preds = %4
  call void @llvm.lifetime.start.p0(i64 4, ptr %10) #3
  %20 = load ptr, ptr %7, align 8, !tbaa !29
  %21 = call noundef i32 @_ZNK2cv3Mat5depthEv(ptr noundef nonnull align 8 dereferenceable(96) %20)
  %22 = icmp eq i32 %21, 2
  br i1 %22, label %23, label %31

23:                                               ; preds = %19
  %24 = load ptr, ptr %7, align 8, !tbaa !29
  %25 = getelementptr inbounds nuw %"class.cv::Mat", ptr %24, i32 0, i32 3
  %26 = load i32, ptr %25, align 4, !tbaa !32
  %27 = load ptr, ptr %7, align 8, !tbaa !29
  %28 = call noundef i32 @_ZNK2cv3Mat8channelsEv(ptr noundef nonnull align 8 dereferenceable(96) %27)
  %29 = mul nsw i32 %26, %28
  %30 = mul nsw i32 %29, 2
  br label %38

31:                                               ; preds = %19
  %32 = load ptr, ptr %7, align 8, !tbaa !29
  %33 = getelementptr inbounds nuw %"class.cv::Mat", ptr %32, i32 0, i32 3
  %34 = load i32, ptr %33, align 4, !tbaa !32
  %35 = load ptr, ptr %7, align 8, !tbaa !29
  %36 = call noundef i32 @_ZNK2cv3Mat8channelsEv(ptr noundef nonnull align 8 dereferenceable(96) %35)
  %37 = mul nsw i32 %34, %36
  br label %38

38:                                               ; preds = %31, %23
  %39 = phi i32 [ %30, %23 ], [ %37, %31 ]
  store i32 %39, ptr %10, align 4, !tbaa !31
  %40 = load ptr, ptr %7, align 8, !tbaa !29
  %41 = getelementptr inbounds nuw %"class.cv::Mat", ptr %40, i32 0, i32 3
  %42 = load i32, ptr %41, align 4, !tbaa !32
  %43 = getelementptr inbounds nuw %"class.cv::APNGFrame", ptr %12, i32 0, i32 1
  store i32 %42, ptr %43, align 8, !tbaa !18
  %44 = load ptr, ptr %7, align 8, !tbaa !29
  %45 = getelementptr inbounds nuw %"class.cv::Mat", ptr %44, i32 0, i32 2
  %46 = load i32, ptr %45, align 8, !tbaa !40
  %47 = getelementptr inbounds nuw %"class.cv::APNGFrame", ptr %12, i32 0, i32 2
  store i32 %46, ptr %47, align 4, !tbaa !19
  %48 = load ptr, ptr %7, align 8, !tbaa !29
  %49 = call noundef i32 @_ZNK2cv3Mat8channelsEv(ptr noundef nonnull align 8 dereferenceable(96) %48)
  %50 = icmp eq i32 %49, 1
  br i1 %50, label %51, label %52

51:                                               ; preds = %38
  br label %57

52:                                               ; preds = %38
  %53 = load ptr, ptr %7, align 8, !tbaa !29
  %54 = call noundef i32 @_ZNK2cv3Mat8channelsEv(ptr noundef nonnull align 8 dereferenceable(96) %53)
  %55 = icmp eq i32 %54, 3
  %56 = select i1 %55, i32 2, i32 6
  br label %57

57:                                               ; preds = %52, %51
  %58 = phi i32 [ 0, %51 ], [ %56, %52 ]
  %59 = trunc i32 %58 to i8
  %60 = getelementptr inbounds nuw %"class.cv::APNGFrame", ptr %12, i32 0, i32 3
  store i8 %59, ptr %60, align 8, !tbaa !20
  %61 = load ptr, ptr %7, align 8, !tbaa !29
  %62 = getelementptr inbounds nuw %"class.cv::Mat", ptr %61, i32 0, i32 4
  %63 = load ptr, ptr %62, align 8, !tbaa !41
  %64 = getelementptr inbounds nuw %"class.cv::APNGFrame", ptr %12, i32 0, i32 0
  store ptr %63, ptr %64, align 8, !tbaa !8
  %65 = getelementptr inbounds nuw %"class.cv::APNGFrame", ptr %12, i32 0, i32 10
  %66 = getelementptr inbounds nuw %"class.cv::APNGFrame", ptr %12, i32 0, i32 2
  %67 = load i32, ptr %66, align 4, !tbaa !19
  %68 = zext i32 %67 to i64
  call void @_ZNSt6vectorIPhSaIS0_EE6resizeEm(ptr noundef nonnull align 8 dereferenceable(24) %65, i64 noundef %68)
  call void @llvm.lifetime.start.p0(i64 4, ptr %11) #3
  store i32 0, ptr %11, align 4, !tbaa !31
  br label %69

69:                                               ; preds = %87, %57
  %70 = load i32, ptr %11, align 4, !tbaa !31
  %71 = getelementptr inbounds nuw %"class.cv::APNGFrame", ptr %12, i32 0, i32 2
  %72 = load i32, ptr %71, align 4, !tbaa !19
  %73 = icmp ult i32 %70, %72
  br i1 %73, label %75, label %74

74:                                               ; preds = %69
  call void @llvm.lifetime.end.p0(i64 4, ptr %11) #3
  br label %90

75:                                               ; preds = %69
  %76 = getelementptr inbounds nuw %"class.cv::APNGFrame", ptr %12, i32 0, i32 0
  %77 = load ptr, ptr %76, align 8, !tbaa !8
  %78 = load i32, ptr %11, align 4, !tbaa !31
  %79 = load i32, ptr %10, align 4, !tbaa !31
  %80 = mul i32 %78, %79
  %81 = zext i32 %80 to i64
  %82 = getelementptr inbounds nuw i8, ptr %77, i64 %81
  %83 = getelementptr inbounds nuw %"class.cv::APNGFrame", ptr %12, i32 0, i32 10
  %84 = load i32, ptr %11, align 4, !tbaa !31
  %85 = zext i32 %84 to i64
  %86 = call noundef nonnull align 8 dereferenceable(8) ptr @_ZNSt6vectorIPhSaIS0_EEixEm(ptr noundef nonnull align 8 dereferenceable(24) %83, i64 noundef %85) #3
  store ptr %82, ptr %86, align 8, !tbaa !42
  br label %87

87:                                               ; preds = %75
  %88 = load i32, ptr %11, align 4, !tbaa !31
  %89 = add i32 %88, 1
  store i32 %89, ptr %11, align 4, !tbaa !31
  br label %69, !llvm.loop !43

90:                                               ; preds = %74
  store i1 true, ptr %5, align 1
  call void @llvm.lifetime.end.p0(i64 4, ptr %10) #3
  br label %92

91:                                               ; preds = %4
  store i1 false, ptr %5, align 1
  br label %92

92:                                               ; preds = %91, %90
  %93 = load i1, ptr %5, align 1
  ret i1 %93
}