; Function Attrs: mustprogress uwtable
define hidden noundef zeroext i1 @_ZN2cv9APNGFrame6setMatERKNS_3MatEjj(ptr noundef nonnull align 8 dereferenceable(1088) initializes((1052, 1060)) %0, ptr noundef nonnull align 8 dereferenceable(96) %1, i32 noundef %2, i32 noundef %3) local_unnamed_addr #5 align 2 personality ptr @__gxx_personality_v0 {
  %5 = getelementptr inbounds nuw i8, ptr %0, i64 1052
  store i32 %2, ptr %5, align 4, !tbaa !17
  %6 = getelementptr inbounds nuw i8, ptr %0, i64 1056
  store i32 %3, ptr %6, align 8, !tbaa !18
  %7 = tail call noundef zeroext i1 @_ZNK2cv3Mat5emptyEv(ptr noundef nonnull align 8 dereferenceable(96) %1)
  br i1 %7, label %.loopexit, label %8

8:                                                ; preds = %4
  %9 = load i32, ptr %1, align 8, !tbaa !20
  %10 = and i32 %9, 7
  %11 = icmp eq i32 %10, 2
  %12 = getelementptr inbounds nuw i8, ptr %1, i64 12
  %13 = load i32, ptr %12, align 4, !tbaa !28
  br i1 %11, label %14, label %19

14:                                               ; preds = %8
  %15 = lshr i32 %9, 2
  %16 = and i32 %15, 1022
  %17 = add nuw nsw i32 %16, 2
  %18 = mul i32 %17, %13
  %.pre22 = lshr i32 %9, 3
  %.pre23 = and i32 %.pre22, 511
  br label %24

19:                                               ; preds = %8
  %20 = lshr i32 %9, 3
  %21 = and i32 %20, 511
  %22 = add nuw nsw i32 %21, 1
  %23 = mul nsw i32 %13, %22
  br label %24

24:                                               ; preds = %19, %14
  %.pre-phi24 = phi i32 [ %21, %19 ], [ %.pre23, %14 ]
  %25 = phi i32 [ %23, %19 ], [ %18, %14 ]
  %26 = getelementptr inbounds nuw i8, ptr %0, i64 8
  store i32 %13, ptr %26, align 8, !tbaa !29
  %27 = getelementptr inbounds nuw i8, ptr %1, i64 8
  %28 = load i32, ptr %27, align 8, !tbaa !30
  %29 = getelementptr inbounds nuw i8, ptr %0, i64 12
  store i32 %28, ptr %29, align 4, !tbaa !31
  %30 = icmp eq i32 %.pre-phi24, 0
  %31 = icmp eq i32 %.pre-phi24, 2
  %32 = select i1 %31, i8 2, i8 6
  %33 = select i1 %30, i8 0, i8 %32
  %34 = getelementptr inbounds nuw i8, ptr %0, i64 16
  store i8 %33, ptr %34, align 8, !tbaa !32
  %35 = getelementptr inbounds nuw i8, ptr %1, i64 16
  %36 = load ptr, ptr %35, align 8, !tbaa !33
  store ptr %36, ptr %0, align 8, !tbaa !34
  %37 = getelementptr inbounds nuw i8, ptr %0, i64 1064
  %38 = zext i32 %28 to i64
  %39 = getelementptr inbounds nuw i8, ptr %0, i64 1072
  %40 = load ptr, ptr %39, align 8, !tbaa !35
  %41 = load ptr, ptr %37, align 8, !tbaa !19
  %42 = ptrtoint ptr %40 to i64
  %43 = ptrtoint ptr %41 to i64
  %44 = sub i64 %42, %43
  %45 = ashr exact i64 %44, 3
  %46 = icmp ult i64 %45, %38
  br i1 %46, label %47, label %49

47:                                               ; preds = %24
  %48 = sub nuw nsw i64 %38, %45
  tail call void @_ZNSt6vectorIPhSaIS0_EE17_M_default_appendEm(ptr noundef nonnull align 8 dereferenceable(24) %37, i64 noundef %48)
  %.pre = load i32, ptr %29, align 4, !tbaa !31
  br label %_ZNSt6vectorIPhSaIS0_EE6resizeEm.exit

49:                                               ; preds = %24
  %50 = icmp ugt i64 %45, %38
  br i1 %50, label %51, label %_ZNSt6vectorIPhSaIS0_EE6resizeEm.exit

51:                                               ; preds = %49
  %52 = getelementptr inbounds nuw ptr, ptr %41, i64 %38
  %.not.i.i = icmp eq ptr %40, %52
  br i1 %.not.i.i, label %_ZNSt6vectorIPhSaIS0_EE6resizeEm.exit, label %53

53:                                               ; preds = %51
  store ptr %52, ptr %39, align 8, !tbaa !35
  br label %_ZNSt6vectorIPhSaIS0_EE6resizeEm.exit

_ZNSt6vectorIPhSaIS0_EE6resizeEm.exit:            ; preds = %47, %49, %51, %53
  %54 = phi i32 [ %.pre, %47 ], [ %28, %49 ], [ %28, %51 ], [ %28, %53 ]
  %.not = icmp eq i32 %54, 0
  br i1 %.not, label %.loopexit, label %.lr.ph

.lr.ph:                                           ; preds = %_ZNSt6vectorIPhSaIS0_EE6resizeEm.exit
  %55 = load ptr, ptr %37, align 8, !tbaa !19
  %wide.trip.count = zext i32 %54 to i64
  br label %56

56:                                               ; preds = %.lr.ph, %56
  %indvars.iv = phi i64 [ 0, %.lr.ph ], [ %indvars.iv.next, %56 ]
  %57 = load ptr, ptr %0, align 8, !tbaa !34
  %58 = trunc nuw i64 %indvars.iv to i32
  %59 = mul i32 %25, %58
  %60 = zext i32 %59 to i64
  %61 = getelementptr inbounds nuw i8, ptr %57, i64 %60
  %62 = getelementptr inbounds nuw ptr, ptr %55, i64 %indvars.iv
  store ptr %61, ptr %62, align 8, !tbaa !36
  %indvars.iv.next = add nuw nsw i64 %indvars.iv, 1
  %exitcond.not = icmp eq i64 %indvars.iv.next, %wide.trip.count
  br i1 %exitcond.not, label %.loopexit, label %56, !llvm.loop !37

.loopexit:                                        ; preds = %56, %_ZNSt6vectorIPhSaIS0_EE6resizeEm.exit, %4
  %.019 = xor i1 %7, true
  ret i1 %.019
}